target datalayout = "e-m:e-p270:32:32-p271:32:32-p272:64:64-i64:64-i128:128-f80:128-n8:16:32:64-S128"
target triple = "x86_64-pc-linux-gnu"

%struct._object = type { %union.anon, ptr }
%union.anon = type { i64 }
%struct.math_module_state = type { ptr, ptr, ptr }
%struct.PyModuleObject = type { %struct._object, ptr, ptr, ptr, ptr, ptr }

@.str.94 = private unnamed_addr constant [9 x i8] c"__ceil__\00", align 1
@.str.95 = private unnamed_addr constant [10 x i8] c"__floor__\00", align 1
@.str.96 = private unnamed_addr constant [10 x i8] c"__trunc__\00", align 1
@.str.97 = private unnamed_addr constant [3 x i8] c"pi\00", align 1
@.str.98 = private unnamed_addr constant [2 x i8] c"e\00", align 1
@.str.99 = private unnamed_addr constant [4 x i8] c"tau\00", align 1
@.str.100 = private unnamed_addr constant [4 x i8] c"inf\00", align 1
@.str.101 = private unnamed_addr constant [4 x i8] c"nan\00", align 1

; Function Attrs: inlinehint nounwind uwtable
define internal ptr @_PyModule_GetState(ptr noundef %0) #6 {
  %2 = alloca ptr, align 8
  store ptr %0, ptr %2, align 8, !tbaa !3
  %3 = load ptr, ptr %2, align 8, !tbaa !3
  %4 = getelementptr inbounds nuw %struct.PyModuleObject, ptr %3, i32 0, i32 3
  %5 = load ptr, ptr %4, align 8, !tbaa !49
  ret ptr %5
}

; Function Attrs: inlinehint nounwind uwtable
define internal ptr @get_math_module_state(ptr noundef %0) #6 {
  %2 = alloca ptr, align 8
  %3 = alloca ptr, align 8
  store ptr %0, ptr %2, align 8, !tbaa !3
  call void @llvm.lifetime.start.p0(i64 8, ptr %3) #10
  %4 = load ptr, ptr %2, align 8, !tbaa !3
  %5 = call ptr @_PyModule_GetState(ptr noundef %4)
  store ptr %5, ptr %3, align 8, !tbaa !8
  %6 = load ptr, ptr %3, align 8, !tbaa !8
  call void @llvm.lifetime.end.p0(i64 8, ptr %3) #10
  ret ptr %6
}

; Function Attrs: nounwind uwtable
define internal i32 @math_exec(ptr noundef %0) #0 {
  %2 = alloca i32, align 4
  %3 = alloca ptr, align 8
  %4 = alloca ptr, align 8
  %5 = alloca i32, align 4
  store ptr %0, ptr %3, align 8, !tbaa !3
  call void @llvm.lifetime.start.p0(i64 8, ptr %4) #10
  %6 = load ptr, ptr %3, align 8, !tbaa !3
  %7 = call ptr @get_math_module_state(ptr noundef %6)
  store ptr %7, ptr %4, align 8, !tbaa !8
  %8 = call ptr @PyUnicode_InternFromString(ptr noundef @.str.94)
  %9 = load ptr, ptr %4, align 8, !tbaa !8
  %10 = getelementptr inbounds nuw %struct.math_module_state, ptr %9, i32 0, i32 0
  store ptr %8, ptr %10, align 8, !tbaa !15
  %11 = load ptr, ptr %4, align 8, !tbaa !8
  %12 = getelementptr inbounds nuw %struct.math_module_state, ptr %11, i32 0, i32 0
  %13 = load ptr, ptr %12, align 8, !tbaa !15
  %14 = icmp eq ptr %13, null
  br i1 %14, label %15, label %16

15:                                               ; preds = %1
  store i32 -1, ptr %2, align 4
  store i32 1, ptr %5, align 4
  br label %66

16:                                               ; preds = %1
  %17 = call ptr @PyUnicode_InternFromString(ptr noundef @.str.95)
  %18 = load ptr, ptr %4, align 8, !tbaa !8
  %19 = getelementptr inbounds nuw %struct.math_module_state, ptr %18, i32 0, i32 1
  store ptr %17, ptr %19, align 8, !tbaa !19
  %20 = load ptr, ptr %4, align 8, !tbaa !8
  %21 = getelementptr inbounds nuw %struct.math_module_state, ptr %20, i32 0, i32 1
  %22 = load ptr, ptr %21, align 8, !tbaa !19
  %23 = icmp eq ptr %22, null
  br i1 %23, label %24, label %25

24:                                               ; preds = %16
  store i32 -1, ptr %2, align 4
  store i32 1, ptr %5, align 4
  br label %66

25:                                               ; preds = %16
  %26 = call ptr @PyUnicode_InternFromString(ptr noundef @.str.96)
  %27 = load ptr, ptr %4, align 8, !tbaa !8
  %28 = getelementptr inbounds nuw %struct.math_module_state, ptr %27, i32 0, i32 2
  store ptr %26, ptr %28, align 8, !tbaa !39
  %29 = load ptr, ptr %4, align 8, !tbaa !8
  %30 = getelementptr inbounds nuw %struct.math_module_state, ptr %29, i32 0, i32 2
  %31 = load ptr, ptr %30, align 8, !tbaa !39
  %32 = icmp eq ptr %31, null
  br i1 %32, label %33, label %34

33:                                               ; preds = %25
  store i32 -1, ptr %2, align 4
  store i32 1, ptr %5, align 4
  br label %66

34:                                               ; preds = %25
  %35 = load ptr, ptr %3, align 8, !tbaa !3
  %36 = call ptr @PyFloat_FromDouble(double noundef 0x400921FB54442D18)
  %37 = call i32 @PyModule_Add(ptr noundef %35, ptr noundef @.str.97, ptr noundef %36)
  %38 = icmp slt i32 %37, 0
  br i1 %38, label %39, label %40

39:                                               ; preds = %34
  store i32 -1, ptr %2, align 4
  store i32 1, ptr %5, align 4
  br label %66

40:                                               ; preds = %34
  %41 = load ptr, ptr %3, align 8, !tbaa !3
  %42 = call ptr @PyFloat_FromDouble(double noundef 0x4005BF0A8B145769)
  %43 = call i32 @PyModule_Add(ptr noundef %41, ptr noundef @.str.98, ptr noundef %42)
  %44 = icmp slt i32 %43, 0
  br i1 %44, label %45, label %46

45:                                               ; preds = %40
  store i32 -1, ptr %2, align 4
  store i32 1, ptr %5, align 4
  br label %66

46:                                               ; preds = %40
  %47 = load ptr, ptr %3, align 8, !tbaa !3
  %48 = call ptr @PyFloat_FromDouble(double noundef 0x401921FB54442D18)
  %49 = call i32 @PyModule_Add(ptr noundef %47, ptr noundef @.str.99, ptr noundef %48)
  %50 = icmp slt i32 %49, 0
  br i1 %50, label %51, label %52

51:                                               ; preds = %46
  store i32 -1, ptr %2, align 4
  store i32 1, ptr %5, align 4
  br label %66

52:                                               ; preds = %46
  %53 = load ptr, ptr %3, align 8, !tbaa !3
  %54 = call ptr @PyFloat_FromDouble(double noundef 0x7FF0000000000000)
  %55 = call i32 @PyModule_Add(ptr noundef %53, ptr noundef @.str.100, ptr noundef %54)
  %56 = icmp slt i32 %55, 0
  br i1 %56, label %57, label %58

57:                                               ; preds = %52
  store i32 -1, ptr %2, align 4
  store i32 1, ptr %5, align 4
  br label %66

58:                                               ; preds = %52
  %59 = load ptr, ptr %3, align 8, !tbaa !3
  %60 = call double @llvm.fabs.f64(double 0x7FF8000000000000)
  %61 = call ptr @PyFloat_FromDouble(double noundef %60)
  %62 = call i32 @PyModule_Add(ptr noundef %59, ptr noundef @.str.101, ptr noundef %61)
  %63 = icmp slt i32 %62, 0
  br i1 %63, label %64, label %65

64:                                               ; preds = %58
  store i32 -1, ptr %2, align 4
  store i32 1, ptr %5, align 4
  br label %66

65:                                               ; preds = %58
  store i32 0, ptr %2, align 4
  store i32 1, ptr %5, align 4
  br label %66

66:                                               ; preds = %65, %64, %57, %51, %45, %39, %33, %24, %15
  call void @llvm.lifetime.end.p0(i64 8, ptr %4) #10
  %67 = load i32, ptr %2, align 4
  ret i32 %67
}