; Function Attrs: nounwind uwtable
define internal range(i32 -1, 1) i32 @math_exec(ptr noundef %0) #0 {
  %2 = getelementptr i8, ptr %0, i64 32
  %.val = load ptr, ptr %2, align 8, !tbaa !3
  %3 = tail call ptr @PyUnicode_InternFromString(ptr noundef nonnull @.str.94) #16
  store ptr %3, ptr %.val, align 8, !tbaa !20
  %4 = icmp eq ptr %3, null
  br i1 %4, label %32, label %5

5:                                                ; preds = %1
  %6 = tail call ptr @PyUnicode_InternFromString(ptr noundef nonnull @.str.95) #16
  %7 = getelementptr inbounds nuw i8, ptr %.val, i64 8
  store ptr %6, ptr %7, align 8, !tbaa !40
  %8 = icmp eq ptr %6, null
  br i1 %8, label %32, label %9

9:                                                ; preds = %5
  %10 = tail call ptr @PyUnicode_InternFromString(ptr noundef nonnull @.str.96) #16
  %11 = getelementptr inbounds nuw i8, ptr %.val, i64 16
  store ptr %10, ptr %11, align 8, !tbaa !56
  %12 = icmp eq ptr %10, null
  br i1 %12, label %32, label %13

13:                                               ; preds = %9
  %14 = tail call ptr @PyFloat_FromDouble(double noundef 0x400921FB54442D18) #16
  %15 = tail call i32 @PyModule_Add(ptr noundef nonnull %0, ptr noundef nonnull @.str.97, ptr noundef %14) #16
  %16 = icmp slt i32 %15, 0
  br i1 %16, label %32, label %17

17:                                               ; preds = %13
  %18 = tail call ptr @PyFloat_FromDouble(double noundef 0x4005BF0A8B145769) #16
  %19 = tail call i32 @PyModule_Add(ptr noundef nonnull %0, ptr noundef nonnull @.str.98, ptr noundef %18) #16
  %20 = icmp slt i32 %19, 0
  br i1 %20, label %32, label %21

21:                                               ; preds = %17
  %22 = tail call ptr @PyFloat_FromDouble(double noundef 0x401921FB54442D18) #16
  %23 = tail call i32 @PyModule_Add(ptr noundef nonnull %0, ptr noundef nonnull @.str.99, ptr noundef %22) #16
  %24 = icmp slt i32 %23, 0
  br i1 %24, label %32, label %25

25:                                               ; preds = %21
  %26 = tail call ptr @PyFloat_FromDouble(double noundef 0x7FF0000000000000) #16
  %27 = tail call i32 @PyModule_Add(ptr noundef nonnull %0, ptr noundef nonnull @.str.100, ptr noundef %26) #16
  %28 = icmp slt i32 %27, 0
  br i1 %28, label %32, label %29

29:                                               ; preds = %25
  %30 = tail call ptr @PyFloat_FromDouble(double noundef 0x7FF8000000000000) #16
  %31 = tail call i32 @PyModule_Add(ptr noundef nonnull %0, ptr noundef nonnull @.str.101, ptr noundef %30) #16
  %.lobit = ashr i32 %31, 31
  br label %32

32:                                               ; preds = %29, %25, %21, %17, %13, %9, %5, %1
  %.0 = phi i32 [ -1, %1 ], [ -1, %5 ], [ -1, %9 ], [ -1, %13 ], [ -1, %17 ], [ -1, %21 ], [ -1, %25 ], [ %.lobit, %29 ]
  ret i32 %.0
}